target datalayout = "e-m:e-p270:32:32-p271:32:32-p272:64:64-i64:64-i128:128-f80:128-n8:16:32:64-S128"
target triple = "x86_64-pc-linux-gnu"

%union.Cubic = type { [4 x float] }

; Function Attrs: nounwind uwtable
define internal void @ResampleFrame_Stereo(ptr noundef %0, ptr noundef %1, ptr noundef %2, float noundef %3, i32 noundef %4) #0 {
  %6 = alloca ptr, align 8
  %7 = alloca ptr, align 8
  %8 = alloca ptr, align 8
  %9 = alloca float, align 4
  %10 = alloca i32, align 4
  %11 = alloca float, align 4
  %12 = alloca float, align 4
  %13 = alloca i32, align 4
  %14 = alloca float, align 4
  %15 = alloca float, align 4
  %16 = alloca float, align 4
  store ptr %0, ptr %6, align 8
  store ptr %1, ptr %7, align 8
  store ptr %2, ptr %8, align 8
  store float %3, ptr %9, align 4
  store i32 %4, ptr %10, align 4
  call void @llvm.lifetime.start.p0(i64 4, ptr %11) #6
  %17 = load float, ptr %9, align 4
  %18 = load float, ptr %9, align 4
  %19 = fmul float %17, %18
  store float %19, ptr %11, align 4
  call void @llvm.lifetime.start.p0(i64 4, ptr %12) #6
  %20 = load float, ptr %9, align 4
  %21 = load float, ptr %11, align 4
  %22 = fmul float %20, %21
  store float %22, ptr %12, align 4
  call void @llvm.lifetime.start.p0(i64 4, ptr %13) #6
  call void @llvm.lifetime.start.p0(i64 4, ptr %14) #6
  store float 0.000000e+00, ptr %14, align 4
  call void @llvm.lifetime.start.p0(i64 4, ptr %15) #6
  store float 0.000000e+00, ptr %15, align 4
  store i32 0, ptr %13, align 4
  br label %23

23:                                               ; preds = %65, %5
  %24 = load i32, ptr %13, align 4
  %25 = icmp slt i32 %24, 10
  br i1 %25, label %26, label %70

26:                                               ; preds = %23
  call void @llvm.lifetime.start.p0(i64 4, ptr %16) #6
  %27 = load ptr, ptr %8, align 8
  %28 = getelementptr inbounds [4 x float], ptr %27, i64 0, i64 0
  %29 = load float, ptr %28, align 4
  %30 = load ptr, ptr %8, align 8
  %31 = getelementptr inbounds [4 x float], ptr %30, i64 0, i64 1
  %32 = load float, ptr %31, align 4
  %33 = load float, ptr %9, align 4
  %34 = call float @llvm.fmuladd.f32(float %32, float %33, float %29)
  %35 = load ptr, ptr %8, align 8
  %36 = getelementptr inbounds [4 x float], ptr %35, i64 0, i64 2
  %37 = load float, ptr %36, align 4
  %38 = load float, ptr %11, align 4
  %39 = call float @llvm.fmuladd.f32(float %37, float %38, float %34)
  %40 = load ptr, ptr %8, align 8
  %41 = getelementptr inbounds [4 x float], ptr %40, i64 0, i64 3
  %42 = load float, ptr %41, align 4
  %43 = load float, ptr %12, align 4
  %44 = call float @llvm.fmuladd.f32(float %42, float %43, float %39)
  store float %44, ptr %16, align 4
  %45 = load ptr, ptr %6, align 8
  %46 = load i32, ptr %13, align 4
  %47 = mul nsw i32 %46, 2
  %48 = add nsw i32 %47, 0
  %49 = sext i32 %48 to i64
  %50 = getelementptr inbounds float, ptr %45, i64 %49
  %51 = load float, ptr %50, align 4
  %52 = load float, ptr %16, align 4
  %53 = load float, ptr %14, align 4
  %54 = call float @llvm.fmuladd.f32(float %51, float %52, float %53)
  store float %54, ptr %14, align 4
  %55 = load ptr, ptr %6, align 8
  %56 = load i32, ptr %13, align 4
  %57 = mul nsw i32 %56, 2
  %58 = add nsw i32 %57, 1
  %59 = sext i32 %58 to i64
  %60 = getelementptr inbounds float, ptr %55, i64 %59
  %61 = load float, ptr %60, align 4
  %62 = load float, ptr %16, align 4
  %63 = load float, ptr %15, align 4
  %64 = call float @llvm.fmuladd.f32(float %61, float %62, float %63)
  store float %64, ptr %15, align 4
  call void @llvm.lifetime.end.p0(i64 4, ptr %16) #6
  br label %65

65:                                               ; preds = %26
  %66 = load i32, ptr %13, align 4
  %67 = add nsw i32 %66, 1
  store i32 %67, ptr %13, align 4
  %68 = load ptr, ptr %8, align 8
  %69 = getelementptr inbounds nuw %union.Cubic, ptr %68, i32 1
  store ptr %69, ptr %8, align 8
  br label %23, !llvm.loop !17

70:                                               ; preds = %23
  %71 = load float, ptr %14, align 4
  %72 = load ptr, ptr %7, align 8
  %73 = getelementptr inbounds float, ptr %72, i64 0
  store float %71, ptr %73, align 4
  %74 = load float, ptr %15, align 4
  %75 = load ptr, ptr %7, align 8
  %76 = getelementptr inbounds float, ptr %75, i64 1
  store float %74, ptr %76, align 4
  call void @llvm.lifetime.end.p0(i64 4, ptr %15) #6
  call void @llvm.lifetime.end.p0(i64 4, ptr %14) #6
  call void @llvm.lifetime.end.p0(i64 4, ptr %13) #6
  call void @llvm.lifetime.end.p0(i64 4, ptr %12) #6
  call void @llvm.lifetime.end.p0(i64 4, ptr %11) #6
  ret void
}