; Function Attrs: nofree norecurse nosync nounwind memory(argmem: readwrite) uwtable
define internal void @ResampleFrame_Stereo(ptr noundef readonly captures(none) %0, ptr noundef writeonly captures(none) %1, ptr noundef readonly captures(none) %2, float noundef %3, i32 %4) #5 {
  %6 = fmul float %3, %3
  %7 = fmul float %3, %6
  br label %8

8:                                                ; preds = %5, %8
  %indvars.iv = phi i64 [ 0, %5 ], [ %indvars.iv.next, %8 ]
  %.031 = phi ptr [ %2, %5 ], [ %25, %8 ]
  %.02530 = phi float [ 0.000000e+00, %5 ], [ %24, %8 ]
  %.02629 = phi float [ 0.000000e+00, %5 ], [ %21, %8 ]
  %9 = load float, ptr %.031, align 4
  %10 = getelementptr inbounds nuw i8, ptr %.031, i64 4
  %11 = load float, ptr %10, align 4
  %12 = tail call float @llvm.fmuladd.f32(float %11, float %3, float %9)
  %13 = getelementptr inbounds nuw i8, ptr %.031, i64 8
  %14 = load float, ptr %13, align 4
  %15 = tail call float @llvm.fmuladd.f32(float %14, float %6, float %12)
  %16 = getelementptr inbounds nuw i8, ptr %.031, i64 12
  %17 = load float, ptr %16, align 4
  %18 = tail call float @llvm.fmuladd.f32(float %17, float %7, float %15)
  %.idx = shl nuw nsw i64 %indvars.iv, 3
  %19 = getelementptr inbounds nuw i8, ptr %0, i64 %.idx
  %20 = load float, ptr %19, align 4
  %21 = tail call float @llvm.fmuladd.f32(float %20, float %18, float %.02629)
  %22 = getelementptr inbounds nuw i8, ptr %19, i64 4
  %23 = load float, ptr %22, align 4
  %24 = tail call float @llvm.fmuladd.f32(float %23, float %18, float %.02530)
  %indvars.iv.next = add nuw nsw i64 %indvars.iv, 1
  %25 = getelementptr inbounds nuw i8, ptr %.031, i64 16
  %exitcond.not = icmp eq i64 %indvars.iv.next, 10
  br i1 %exitcond.not, label %26, label %8, !llvm.loop !15

26:                                               ; preds = %8
  store float %21, ptr %1, align 4
  %27 = getelementptr inbounds nuw i8, ptr %1, i64 4
  store float %24, ptr %27, align 4
  ret void
}